target datalayout = "e-m:e-p270:32:32-p271:32:32-p272:64:64-i64:64-i128:128-f80:128-n8:16:32:64-S128"
target triple = "x86_64-pc-linux-gnu"

%struct.AVFormatContext = type { ptr, ptr, ptr, ptr, ptr, i32, i32, ptr, i32, ptr, i32, ptr, ptr, i64, i64, i64, i32, i32, i32, i64, i64, ptr, i32, i32, ptr, i32, i32, i32, i32, ptr, i64, i32, i32, %struct.AVIOInterruptCB, i32, i32, i32, i32, i64, i32, i32, i32, i32, i32, i32, i32, i32, i32, i32, i32, i32, i64, i32, i32, i32, i32, i32, ptr, ptr, ptr, ptr, i32, ptr, ptr, ptr, ptr, i32, ptr, ptr, i64, ptr, ptr, ptr, i64 }
%struct.AVIOInterruptCB = type { ptr, ptr }
%struct.AVProgram = type { i32, i32, i32, ptr, i32, ptr, i32, i32, i32, i32, i64, i64, i64, i32 }

@.str.11 = private unnamed_addr constant [30 x i8] c"stream index %d is not valid\0A\00", align 1

; Function Attrs: nounwind uwtable
define void @av_program_add_stream_index(ptr noundef %0, i32 noundef %1, i32 noundef %2) #0 {
  %4 = alloca ptr, align 8
  %5 = alloca i32, align 4
  %6 = alloca i32, align 4
  %7 = alloca ptr, align 8
  %8 = alloca ptr, align 8
  %9 = alloca i32, align 4
  %10 = alloca i32, align 4
  %11 = alloca i32, align 4
  store ptr %0, ptr %4, align 8, !tbaa !47
  store i32 %1, ptr %5, align 4, !tbaa !74
  store i32 %2, ptr %6, align 4, !tbaa !74
  call void @llvm.lifetime.start.p0(i64 8, ptr %7) #11
  store ptr null, ptr %7, align 8, !tbaa !80
  call void @llvm.lifetime.start.p0(i64 8, ptr %8) #11
  %12 = load i32, ptr %6, align 4, !tbaa !74
  %13 = load ptr, ptr %4, align 8, !tbaa !47
  %14 = getelementptr inbounds nuw %struct.AVFormatContext, ptr %13, i32 0, i32 6
  %15 = load i32, ptr %14, align 4, !tbaa !48
  %16 = icmp uge i32 %12, %15
  br i1 %16, label %17, label %20

17:                                               ; preds = %3
  %18 = load ptr, ptr %4, align 8, !tbaa !47
  %19 = load i32, ptr %6, align 4, !tbaa !74
  call void (ptr, i32, ptr, ...) @av_log(ptr noundef %18, i32 noundef 16, ptr noundef @.str.11, i32 noundef %19)
  store i32 1, ptr %9, align 4
  br label %106

20:                                               ; preds = %3
  call void @llvm.lifetime.start.p0(i64 4, ptr %10) #11
  store i32 0, ptr %10, align 4, !tbaa !74
  br label %21

21:                                               ; preds = %100, %20
  %22 = load i32, ptr %10, align 4, !tbaa !74
  %23 = load ptr, ptr %4, align 8, !tbaa !47
  %24 = getelementptr inbounds nuw %struct.AVFormatContext, ptr %23, i32 0, i32 23
  %25 = load i32, ptr %24, align 4, !tbaa !78
  %26 = icmp ult i32 %22, %25
  br i1 %26, label %28, label %27

27:                                               ; preds = %21
  store i32 2, ptr %9, align 4
  br label %103

28:                                               ; preds = %21
  %29 = load ptr, ptr %4, align 8, !tbaa !47
  %30 = getelementptr inbounds nuw %struct.AVFormatContext, ptr %29, i32 0, i32 24
  %31 = load ptr, ptr %30, align 8, !tbaa !79
  %32 = load i32, ptr %10, align 4, !tbaa !74
  %33 = zext i32 %32 to i64
  %34 = getelementptr inbounds nuw ptr, ptr %31, i64 %33
  %35 = load ptr, ptr %34, align 8, !tbaa !80
  %36 = getelementptr inbounds nuw %struct.AVProgram, ptr %35, i32 0, i32 0
  %37 = load i32, ptr %36, align 8, !tbaa !100
  %38 = load i32, ptr %5, align 4, !tbaa !74
  %39 = icmp ne i32 %37, %38
  br i1 %39, label %40, label %41

40:                                               ; preds = %28
  br label %100

41:                                               ; preds = %28
  %42 = load ptr, ptr %4, align 8, !tbaa !47
  %43 = getelementptr inbounds nuw %struct.AVFormatContext, ptr %42, i32 0, i32 24
  %44 = load ptr, ptr %43, align 8, !tbaa !79
  %45 = load i32, ptr %10, align 4, !tbaa !74
  %46 = zext i32 %45 to i64
  %47 = getelementptr inbounds nuw ptr, ptr %44, i64 %46
  %48 = load ptr, ptr %47, align 8, !tbaa !80
  store ptr %48, ptr %7, align 8, !tbaa !80
  call void @llvm.lifetime.start.p0(i64 4, ptr %11) #11
  store i32 0, ptr %11, align 4, !tbaa !74
  br label %49

49:                                               ; preds = %68, %41
  %50 = load i32, ptr %11, align 4, !tbaa !74
  %51 = load ptr, ptr %7, align 8, !tbaa !80
  %52 = getelementptr inbounds nuw %struct.AVProgram, ptr %51, i32 0, i32 4
  %53 = load i32, ptr %52, align 8, !tbaa !110
  %54 = icmp ult i32 %50, %53
  br i1 %54, label %56, label %55

55:                                               ; preds = %49
  store i32 5, ptr %9, align 4
  br label %71

56:                                               ; preds = %49
  %57 = load ptr, ptr %7, align 8, !tbaa !80
  %58 = getelementptr inbounds nuw %struct.AVProgram, ptr %57, i32 0, i32 3
  %59 = load ptr, ptr %58, align 8, !tbaa !111
  %60 = load i32, ptr %11, align 4, !tbaa !74
  %61 = zext i32 %60 to i64
  %62 = getelementptr inbounds nuw i32, ptr %59, i64 %61
  %63 = load i32, ptr %62, align 4, !tbaa !74
  %64 = load i32, ptr %6, align 4, !tbaa !74
  %65 = icmp eq i32 %63, %64
  br i1 %65, label %66, label %67

66:                                               ; preds = %56
  store i32 1, ptr %9, align 4
  br label %71

67:                                               ; preds = %56
  br label %68

68:                                               ; preds = %67
  %69 = load i32, ptr %11, align 4, !tbaa !74
  %70 = add i32 %69, 1
  store i32 %70, ptr %11, align 4, !tbaa !74
  br label %49, !llvm.loop !112

71:                                               ; preds = %66, %55
  call void @llvm.lifetime.end.p0(i64 4, ptr %11) #11
  %72 = load i32, ptr %9, align 4
  switch i32 %72, label %103 [
    i32 5, label %73
  ]

73:                                               ; preds = %71
  %74 = load ptr, ptr %7, align 8, !tbaa !80
  %75 = getelementptr inbounds nuw %struct.AVProgram, ptr %74, i32 0, i32 3
  %76 = load ptr, ptr %75, align 8, !tbaa !111
  %77 = load ptr, ptr %7, align 8, !tbaa !80
  %78 = getelementptr inbounds nuw %struct.AVProgram, ptr %77, i32 0, i32 4
  %79 = load i32, ptr %78, align 8, !tbaa !110
  %80 = add i32 %79, 1
  %81 = zext i32 %80 to i64
  %82 = call ptr @av_realloc_array(ptr noundef %76, i64 noundef %81, i64 noundef 4)
  store ptr %82, ptr %8, align 8, !tbaa !113
  %83 = load ptr, ptr %8, align 8, !tbaa !113
  %84 = icmp ne ptr %83, null
  br i1 %84, label %86, label %85

85:                                               ; preds = %73
  store i32 1, ptr %9, align 4
  br label %103

86:                                               ; preds = %73
  %87 = load ptr, ptr %8, align 8, !tbaa !113
  %88 = load ptr, ptr %7, align 8, !tbaa !80
  %89 = getelementptr inbounds nuw %struct.AVProgram, ptr %88, i32 0, i32 3
  store ptr %87, ptr %89, align 8, !tbaa !111
  %90 = load i32, ptr %6, align 4, !tbaa !74
  %91 = load ptr, ptr %7, align 8, !tbaa !80
  %92 = getelementptr inbounds nuw %struct.AVProgram, ptr %91, i32 0, i32 3
  %93 = load ptr, ptr %92, align 8, !tbaa !111
  %94 = load ptr, ptr %7, align 8, !tbaa !80
  %95 = getelementptr inbounds nuw %struct.AVProgram, ptr %94, i32 0, i32 4
  %96 = load i32, ptr %95, align 8, !tbaa !110
  %97 = add i32 %96, 1
  store i32 %97, ptr %95, align 8, !tbaa !110
  %98 = zext i32 %96 to i64
  %99 = getelementptr inbounds nuw i32, ptr %93, i64 %98
  store i32 %90, ptr %99, align 4, !tbaa !74
  store i32 1, ptr %9, align 4
  br label %103

100:                                              ; preds = %40
  %101 = load i32, ptr %10, align 4, !tbaa !74
  %102 = add i32 %101, 1
  store i32 %102, ptr %10, align 4, !tbaa !74
  br label %21, !llvm.loop !114

103:                                              ; preds = %86, %85, %71, %27
  call void @llvm.lifetime.end.p0(i64 4, ptr %10) #11
  %104 = load i32, ptr %9, align 4
  switch i32 %104, label %106 [
    i32 2, label %105
  ]

105:                                              ; preds = %103
  store i32 0, ptr %9, align 4
  br label %106

106:                                              ; preds = %105, %103, %17
  call void @llvm.lifetime.end.p0(i64 8, ptr %8) #11
  call void @llvm.lifetime.end.p0(i64 8, ptr %7) #11
  %107 = load i32, ptr %9, align 4
  switch i32 %107, label %109 [
    i32 0, label %108
    i32 1, label %108
  ]

108:                                              ; preds = %106, %106
  ret void

109:                                              ; preds = %106
  unreachable
}