; Function Attrs: nounwind uwtable
define void @av_program_add_stream_index(ptr noundef %0, i32 noundef %1, i32 noundef %2) local_unnamed_addr #0 {
  %4 = getelementptr inbounds nuw i8, ptr %0, i64 44
  %5 = load i32, ptr %4, align 4, !tbaa !42
  %.not = icmp ult i32 %2, %5
  br i1 %.not, label %.preheader36, label %10

.preheader36:                                     ; preds = %3
  %6 = getelementptr inbounds nuw i8, ptr %0, i64 164
  %7 = load i32, ptr %6, align 4, !tbaa !67
  %.not46 = icmp eq i32 %7, 0
  br i1 %.not46, label %.loopexit, label %.lr.ph

.lr.ph:                                           ; preds = %.preheader36
  %8 = getelementptr inbounds nuw i8, ptr %0, i64 168
  %9 = load ptr, ptr %8, align 8, !tbaa !70
  %wide.trip.count = zext i32 %7 to i64
  br label %12

10:                                               ; preds = %3
  tail call void (ptr, i32, ptr, ...) @av_log(ptr noundef nonnull %0, i32 noundef 16, ptr noundef nonnull @.str.11, i32 noundef %2) #13
  br label %.loopexit

11:                                               ; preds = %12
  %indvars.iv.next = add nuw nsw i64 %indvars.iv, 1
  %exitcond.not = icmp eq i64 %indvars.iv.next, %wide.trip.count
  br i1 %exitcond.not, label %.loopexit, label %12, !llvm.loop !98

12:                                               ; preds = %.lr.ph, %11
  %indvars.iv = phi i64 [ 0, %.lr.ph ], [ %indvars.iv.next, %11 ]
  %13 = getelementptr inbounds nuw ptr, ptr %9, i64 %indvars.iv
  %14 = load ptr, ptr %13, align 8, !tbaa !71
  %15 = load i32, ptr %14, align 8, !tbaa !88
  %.not33 = icmp eq i32 %15, %1
  br i1 %.not33, label %.preheader, label %11

.preheader:                                       ; preds = %12
  %16 = getelementptr inbounds nuw i8, ptr %14, i64 24
  %17 = load i32, ptr %16, align 8, !tbaa !99
  %.not3443.not = icmp eq i32 %17, 0
  %.phi.trans.insert = getelementptr inbounds nuw i8, ptr %14, i64 16
  %.pre = load ptr, ptr %.phi.trans.insert, align 8, !tbaa !100
  br i1 %.not3443.not, label %.critedge, label %.lr.ph45

.lr.ph45:                                         ; preds = %.preheader
  %wide.trip.count53 = zext i32 %17 to i64
  br label %19

18:                                               ; preds = %19
  %indvars.iv.next51 = add nuw nsw i64 %indvars.iv50, 1
  %exitcond54.not = icmp eq i64 %indvars.iv.next51, %wide.trip.count53
  br i1 %exitcond54.not, label %.critedge, label %19, !llvm.loop !101

19:                                               ; preds = %.lr.ph45, %18
  %indvars.iv50 = phi i64 [ 0, %.lr.ph45 ], [ %indvars.iv.next51, %18 ]
  %20 = getelementptr inbounds nuw i32, ptr %.pre, i64 %indvars.iv50
  %21 = load i32, ptr %20, align 4, !tbaa !102
  %22 = icmp eq i32 %21, %2
  br i1 %22, label %.loopexit, label %18

.critedge:                                        ; preds = %18, %.preheader
  %23 = add i32 %17, 1
  %24 = zext i32 %23 to i64
  %25 = tail call ptr @av_realloc_array(ptr noundef %.pre, i64 noundef %24, i64 noundef 4) #13
  %.not35 = icmp eq ptr %25, null
  br i1 %.not35, label %.loopexit, label %26

26:                                               ; preds = %.critedge
  %27 = getelementptr inbounds nuw i8, ptr %14, i64 16
  store ptr %25, ptr %27, align 8, !tbaa !100
  %28 = load i32, ptr %16, align 8, !tbaa !99
  %29 = add i32 %28, 1
  store i32 %29, ptr %16, align 8, !tbaa !99
  %30 = zext i32 %28 to i64
  %31 = getelementptr inbounds nuw i32, ptr %25, i64 %30
  store i32 %2, ptr %31, align 4, !tbaa !102
  br label %.loopexit

.loopexit:                                        ; preds = %11, %19, %.preheader36, %26, %.critedge, %10
  ret void
}